target datalayout = "e-m:e-p270:32:32-p271:32:32-p272:64:64-i64:64-i128:128-f80:128-n8:16:32:64-S128"
target triple = "x86_64-pc-linux-gnu"

%struct.topoinfo_block = type { i32, ptr }
%struct.topoinfo_bblock = type { i8, i16, ptr, ptr, i32 }

; Function Attrs: nounwind uwtable
define dso_local i32 @topology_p_topology_free(ptr noundef %0) #0 {
  %2 = alloca ptr, align 8
  %3 = alloca i32, align 4
  %4 = alloca ptr, align 8
  store ptr %0, ptr %2, align 8
  call void @llvm.lifetime.start.p0(i64 4, ptr %3) #8
  store i32 0, ptr %3, align 4
  call void @llvm.lifetime.start.p0(i64 8, ptr %4) #8
  %5 = load ptr, ptr %2, align 8
  store ptr %5, ptr %4, align 8
  %6 = load ptr, ptr %4, align 8
  %7 = icmp ne ptr %6, null
  br i1 %7, label %8, label %42

8:                                                ; preds = %1
  %9 = load ptr, ptr %4, align 8
  %10 = getelementptr inbounds nuw %struct.topoinfo_block, ptr %9, i32 0, i32 1
  %11 = load ptr, ptr %10, align 8
  %12 = icmp ne ptr %11, null
  br i1 %12, label %13, label %41

13:                                               ; preds = %8
  store i32 0, ptr %3, align 4
  br label %14

14:                                               ; preds = %35, %13
  %15 = load i32, ptr %3, align 4
  %16 = load ptr, ptr %4, align 8
  %17 = getelementptr inbounds nuw %struct.topoinfo_block, ptr %16, i32 0, i32 0
  %18 = load i32, ptr %17, align 8
  %19 = icmp ult i32 %15, %18
  br i1 %19, label %20, label %38

20:                                               ; preds = %14
  %21 = load ptr, ptr %4, align 8
  %22 = getelementptr inbounds nuw %struct.topoinfo_block, ptr %21, i32 0, i32 1
  %23 = load ptr, ptr %22, align 8
  %24 = load i32, ptr %3, align 4
  %25 = sext i32 %24 to i64
  %26 = getelementptr inbounds %struct.topoinfo_bblock, ptr %23, i64 %25
  %27 = getelementptr inbounds nuw %struct.topoinfo_bblock, ptr %26, i32 0, i32 2
  call void @slurm_xfree(ptr noundef %27)
  %28 = load ptr, ptr %4, align 8
  %29 = getelementptr inbounds nuw %struct.topoinfo_block, ptr %28, i32 0, i32 1
  %30 = load ptr, ptr %29, align 8
  %31 = load i32, ptr %3, align 4
  %32 = sext i32 %31 to i64
  %33 = getelementptr inbounds %struct.topoinfo_bblock, ptr %30, i64 %32
  %34 = getelementptr inbounds nuw %struct.topoinfo_bblock, ptr %33, i32 0, i32 3
  call void @slurm_xfree(ptr noundef %34)
  br label %35

35:                                               ; preds = %20
  %36 = load i32, ptr %3, align 4
  %37 = add nsw i32 %36, 1
  store i32 %37, ptr %3, align 4
  br label %14, !llvm.loop !13

38:                                               ; preds = %14
  %39 = load ptr, ptr %4, align 8
  %40 = getelementptr inbounds nuw %struct.topoinfo_block, ptr %39, i32 0, i32 1
  call void @slurm_xfree(ptr noundef %40)
  br label %41

41:                                               ; preds = %38, %8
  call void @slurm_xfree(ptr noundef %4)
  br label %42

42:                                               ; preds = %41, %1
  call void @llvm.lifetime.end.p0(i64 8, ptr %4) #8
  call void @llvm.lifetime.end.p0(i64 4, ptr %3) #8
  ret i32 0
}