; Function Attrs: nounwind uwtable
define dso_local noundef i32 @topology_p_topology_free(ptr noundef %0) local_unnamed_addr #0 {
  %2 = alloca ptr, align 8
  call void @llvm.lifetime.start.p0(i64 8, ptr nonnull %2) #9
  store ptr %0, ptr %2, align 8
  %.not = icmp eq ptr %0, null
  br i1 %.not, label %15, label %3

3:                                                ; preds = %1
  %4 = getelementptr inbounds nuw i8, ptr %0, i64 8
  %5 = load ptr, ptr %4, align 8
  %.not5 = icmp eq ptr %5, null
  br i1 %.not5, label %14, label %.preheader

.preheader:                                       ; preds = %3
  %6 = load i32, ptr %0, align 8
  %.not7 = icmp eq i32 %6, 0
  br i1 %.not7, label %._crit_edge, label %.lr.ph

.lr.ph:                                           ; preds = %.preheader, %.lr.ph
  %indvars.iv = phi i64 [ %indvars.iv.next, %.lr.ph ], [ 0, %.preheader ]
  %7 = load ptr, ptr %4, align 8
  %8 = getelementptr inbounds nuw %struct.topoinfo_bblock, ptr %7, i64 %indvars.iv, i32 2
  tail call void @slurm_xfree(ptr noundef nonnull %8) #9
  %9 = load ptr, ptr %4, align 8
  %10 = getelementptr inbounds nuw %struct.topoinfo_bblock, ptr %9, i64 %indvars.iv, i32 3
  tail call void @slurm_xfree(ptr noundef nonnull %10) #9
  %indvars.iv.next = add nuw nsw i64 %indvars.iv, 1
  %11 = load i32, ptr %0, align 8
  %12 = zext i32 %11 to i64
  %13 = icmp samesign ult i64 %indvars.iv.next, %12
  br i1 %13, label %.lr.ph, label %._crit_edge, !llvm.loop !13

._crit_edge:                                      ; preds = %.lr.ph, %.preheader
  tail call void @slurm_xfree(ptr noundef nonnull %4) #9
  br label %14

14:                                               ; preds = %._crit_edge, %3
  call void @slurm_xfree(ptr noundef nonnull %2) #9
  br label %15

15:                                               ; preds = %14, %1
  call void @llvm.lifetime.end.p0(i64 8, ptr nonnull %2) #9
  ret i32 0
}